;;; FLAGS: -dv
(module
  (func
    (block $outer           ;; 3
      (loop                 ;; 2
        (block              ;; 1
          (i32.const 0)
          (block $inner     ;; 0
            (br $inner)
            (br $outer)))))))
(;; STDOUT ;;;
0000000: 01                                         ; WASM_SECTION_SIGNATURES
0000001: 01                                         ; num signatures
; signature 0
0000002: 00                                         ; num params
0000003: 00                                         ; result_type
0000004: 02                                         ; WASM_SECTION_FUNCTIONS
0000005: 01                                         ; num functions
; function 0
0000006: 00                                         ; func flags
0000007: 0000                                       ; func signature index
0000009: 0000                                       ; func body size
000000b: 01                                         ; OPCODE_BLOCK
000000c: 02                                         ; OPCODE_LOOP
000000d: 01                                         ; OPCODE_BLOCK
000000e: 09                                         ; OPCODE_I8_CONST
000000f: 00                                         ; u8 literal
0000010: 01                                         ; OPCODE_BLOCK
0000011: 00                                         ; OPCODE_NOP
0000012: 06                                         ; OPCODE_BR
0000013: 00                                         ; break depth
0000014: 00                                         ; OPCODE_NOP
0000015: 06                                         ; OPCODE_BR
0000016: 04                                         ; break depth
0000017: 17                                         ; OPCODE_END
0000018: 17                                         ; OPCODE_END
0000019: 17                                         ; OPCODE_END
000001a: 17                                         ; OPCODE_END
0000009: 1000                                       ; FIXUP func body size
000001b: 06                                         ; WASM_SECTION_END
;; dump
0000000: 0101 0000 0201 0000 0010 0001 0201 0900  
0000010: 0100 0600 0006 0417 1717 1706            
;;; STDOUT ;;)
