;;; FLAGS: -dv
(module
  (func
    (loop $cont
      (if (i32.const 1)
        (br $cont)))))
(;; STDOUT ;;;
0000000: 01                                         ; WASM_SECTION_SIGNATURES
0000001: 01                                         ; num signatures
; signature 0
0000002: 00                                         ; num params
0000003: 00                                         ; result_type
0000004: 02                                         ; WASM_SECTION_FUNCTIONS
0000005: 01                                         ; num functions
; function 0
0000006: 00                                         ; func flags
0000007: 0000                                       ; func signature index
0000009: 0000                                       ; func body size
000000b: 02                                         ; OPCODE_LOOP
000000c: 09                                         ; OPCODE_I8_CONST
000000d: 01                                         ; u8 literal
000000e: 03                                         ; OPCODE_IF
000000f: 00                                         ; OPCODE_NOP
0000010: 06                                         ; OPCODE_BR
0000011: 00                                         ; break depth
0000012: 17                                         ; OPCODE_END
0000013: 17                                         ; OPCODE_END
0000009: 0900                                       ; FIXUP func body size
0000014: 06                                         ; WASM_SECTION_END
;; dump
0000000: 0101 0000 0201 0000 0009 0002 0901 0300  
0000010: 0600 1717 06                             
;;; STDOUT ;;)
