;;; FLAGS: -dv
(module
  (func (result i32)
    (loop $exit $cont
      (if (i32.const 1)
        (br $cont))
      (if (i32.const 3)
        (br $exit (i32.const 4)))
      (i32.const 5))))
(;; STDOUT ;;;
0000000: 01                                         ; WASM_SECTION_SIGNATURES
0000001: 01                                         ; num signatures
; signature 0
0000002: 00                                         ; num params
0000003: 01                                         ; result_type
0000004: 02                                         ; WASM_SECTION_FUNCTIONS
0000005: 01                                         ; num functions
; function 0
0000006: 00                                         ; func flags
0000007: 0000                                       ; func signature index
0000009: 0000                                       ; func body size
000000b: 02                                         ; OPCODE_LOOP
000000c: 09                                         ; OPCODE_I8_CONST
000000d: 01                                         ; u8 literal
000000e: 03                                         ; OPCODE_IF
000000f: 00                                         ; OPCODE_NOP
0000010: 06                                         ; OPCODE_BR
0000011: 00                                         ; break depth
0000012: 17                                         ; OPCODE_END
0000013: 09                                         ; OPCODE_I8_CONST
0000014: 03                                         ; u8 literal
0000015: 03                                         ; OPCODE_IF
0000016: 09                                         ; OPCODE_I8_CONST
0000017: 04                                         ; u8 literal
0000018: 06                                         ; OPCODE_BR
0000019: 01                                         ; break depth
000001a: 17                                         ; OPCODE_END
000001b: 09                                         ; OPCODE_I8_CONST
000001c: 05                                         ; u8 literal
000001d: 17                                         ; OPCODE_END
0000009: 1300                                       ; FIXUP func body size
000001e: 06                                         ; WASM_SECTION_END
;; dump
0000000: 0101 0001 0201 0000 0013 0002 0901 0300  
0000010: 0600 1709 0303 0904 0601 1709 0517 06    
;;; STDOUT ;;)
