;;; FLAGS: -dv
(module
  (func
    (if (i32.const 1) (nop))
    (if_else (i32.const 0) (f32.const 1.0) (f32.const 2.0)))
  (func
    (if_else (i32.const 1) (return) (return))))
(;; STDOUT ;;;
0000000: 01                                         ; WASM_SECTION_SIGNATURES
0000001: 01                                         ; num signatures
; signature 0
0000002: 00                                         ; num params
0000003: 00                                         ; result_type
0000004: 02                                         ; WASM_SECTION_FUNCTIONS
0000005: 02                                         ; num functions
; function 0
0000006: 00                                         ; func flags
0000007: 0000                                       ; func signature index
0000009: 0000                                       ; func body size
000000b: 09                                         ; OPCODE_I8_CONST
000000c: 01                                         ; u8 literal
000000d: 03                                         ; OPCODE_IF
000000e: 00                                         ; OPCODE_NOP
000000f: 17                                         ; OPCODE_END
0000010: 09                                         ; OPCODE_I8_CONST
0000011: 00                                         ; u8 literal
0000012: 03                                         ; OPCODE_IF
0000013: 0d                                         ; OPCODE_F32_CONST
0000014: 0000 803f                                  ; f32 literal
0000018: 04                                         ; OPCODE_ELSE
0000019: 0d                                         ; OPCODE_F32_CONST
000001a: 0000 0040                                  ; f32 literal
000001e: 17                                         ; OPCODE_END
0000009: 1400                                       ; FIXUP func body size
; function 1
000001f: 00                                         ; func flags
0000020: 0000                                       ; func signature index
0000022: 0000                                       ; func body size
0000024: 09                                         ; OPCODE_I8_CONST
0000025: 01                                         ; u8 literal
0000026: 03                                         ; OPCODE_IF
0000027: 14                                         ; OPCODE_RETURN
0000028: 04                                         ; OPCODE_ELSE
0000029: 14                                         ; OPCODE_RETURN
000002a: 17                                         ; OPCODE_END
0000022: 0700                                       ; FIXUP func body size
000002b: 06                                         ; WASM_SECTION_END
;; dump
0000000: 0101 0000 0202 0000 0014 0009 0103 0017  
0000010: 0900 030d 0000 803f 040d 0000 0040 1700  
0000020: 0000 0700 0901 0314 0414 1706            
;;; STDOUT ;;)
