;;; FLAGS: -dv
(module
  (func
    (i32.load (i32.const 0))
    (i32.load8_s (i32.const 0))
    (i32.load16_s (i32.const 0))
    (i32.load8_u (i32.const 0))
    (i32.load16_u (i32.const 0))
    (i64.load (i32.const 0))
    (i64.load8_s (i32.const 0))
    (i64.load16_s (i32.const 0))
    (i64.load32_s (i32.const 0))
    (i64.load8_u (i32.const 0))
    (i64.load16_u (i32.const 0))
    (i64.load32_u (i32.const 0))
    (f32.load (i32.const 0))
    (f64.load (i32.const 0))))
(;; STDOUT ;;;
0000000: 01                                         ; WASM_SECTION_SIGNATURES
0000001: 01                                         ; num signatures
; signature 0
0000002: 00                                         ; num params
0000003: 00                                         ; result_type
0000004: 02                                         ; WASM_SECTION_FUNCTIONS
0000005: 01                                         ; num functions
; function 0
0000006: 00                                         ; func flags
0000007: 0000                                       ; func signature index
0000009: 0000                                       ; func body size
000000b: 09                                         ; OPCODE_I8_CONST
000000c: 00                                         ; u8 literal
000000d: 2a                                         ; OPCODE_I32_LOAD_MEM
000000e: 00                                         ; load access byte
000000f: 09                                         ; OPCODE_I8_CONST
0000010: 00                                         ; u8 literal
0000011: 20                                         ; OPCODE_I32_LOAD_MEM8_S
0000012: 00                                         ; load access byte
0000013: 09                                         ; OPCODE_I8_CONST
0000014: 00                                         ; u8 literal
0000015: 22                                         ; OPCODE_I32_LOAD_MEM16_S
0000016: 00                                         ; load access byte
0000017: 09                                         ; OPCODE_I8_CONST
0000018: 00                                         ; u8 literal
0000019: 21                                         ; OPCODE_I32_LOAD_MEM8_U
000001a: 00                                         ; load access byte
000001b: 09                                         ; OPCODE_I8_CONST
000001c: 00                                         ; u8 literal
000001d: 23                                         ; OPCODE_I32_LOAD_MEM16_U
000001e: 00                                         ; load access byte
000001f: 09                                         ; OPCODE_I8_CONST
0000020: 00                                         ; u8 literal
0000021: 2b                                         ; OPCODE_I64_LOAD_MEM
0000022: 00                                         ; load access byte
0000023: 09                                         ; OPCODE_I8_CONST
0000024: 00                                         ; u8 literal
0000025: 24                                         ; OPCODE_I64_LOAD_MEM8_S
0000026: 00                                         ; load access byte
0000027: 09                                         ; OPCODE_I8_CONST
0000028: 00                                         ; u8 literal
0000029: 26                                         ; OPCODE_I64_LOAD_MEM16_S
000002a: 00                                         ; load access byte
000002b: 09                                         ; OPCODE_I8_CONST
000002c: 00                                         ; u8 literal
000002d: 28                                         ; OPCODE_I64_LOAD_MEM32_S
000002e: 00                                         ; load access byte
000002f: 09                                         ; OPCODE_I8_CONST
0000030: 00                                         ; u8 literal
0000031: 25                                         ; OPCODE_I64_LOAD_MEM8_U
0000032: 00                                         ; load access byte
0000033: 09                                         ; OPCODE_I8_CONST
0000034: 00                                         ; u8 literal
0000035: 27                                         ; OPCODE_I64_LOAD_MEM16_U
0000036: 00                                         ; load access byte
0000037: 09                                         ; OPCODE_I8_CONST
0000038: 00                                         ; u8 literal
0000039: 29                                         ; OPCODE_I64_LOAD_MEM32_U
000003a: 00                                         ; load access byte
000003b: 09                                         ; OPCODE_I8_CONST
000003c: 00                                         ; u8 literal
000003d: 2c                                         ; OPCODE_F32_LOAD_MEM
000003e: 00                                         ; load access byte
000003f: 09                                         ; OPCODE_I8_CONST
0000040: 00                                         ; u8 literal
0000041: 2d                                         ; OPCODE_F64_LOAD_MEM
0000042: 00                                         ; load access byte
0000009: 3800                                       ; FIXUP func body size
0000043: 06                                         ; WASM_SECTION_END
;; dump
0000000: 0101 0000 0201 0000 0038 0009 002a 0009  
0000010: 0020 0009 0022 0009 0021 0009 0023 0009  
0000020: 002b 0009 0024 0009 0026 0009 0028 0009  
0000030: 0025 0009 0027 0009 0029 0009 002c 0009  
0000040: 002d 0006                                
;;; STDOUT ;;)
