;;; FLAGS: -dv
(module
  (func
    (i32.select (i32.const 2) (i32.const 3) (i32.const 1))
    (i64.select (i64.const 2) (i64.const 3) (i32.const 1))
    (f32.select (f32.const 2) (f32.const 3) (i32.const 1))
    (f64.select (f64.const 2) (f64.const 3) (i32.const 1))))
(;; STDOUT ;;;
0000000: 01                                         ; WASM_SECTION_SIGNATURES
0000001: 01                                         ; num signatures
; signature 0
0000002: 00                                         ; num params
0000003: 00                                         ; result_type
0000004: 02                                         ; WASM_SECTION_FUNCTIONS
0000005: 01                                         ; num functions
; function 0
0000006: 00                                         ; func flags
0000007: 0000                                       ; func signature index
0000009: 0000                                       ; func body size
000000b: 09                                         ; OPCODE_I8_CONST
000000c: 02                                         ; u8 literal
000000d: 09                                         ; OPCODE_I8_CONST
000000e: 03                                         ; u8 literal
000000f: 09                                         ; OPCODE_I8_CONST
0000010: 01                                         ; u8 literal
0000011: 05                                         ; OPCODE_SELECT
0000012: 0b                                         ; OPCODE_I64_CONST
0000013: 0200 0000 0000 0000                        ; u64 literal
000001b: 0b                                         ; OPCODE_I64_CONST
000001c: 0300 0000 0000 0000                        ; u64 literal
0000024: 09                                         ; OPCODE_I8_CONST
0000025: 01                                         ; u8 literal
0000026: 05                                         ; OPCODE_SELECT
0000027: 0d                                         ; OPCODE_F32_CONST
0000028: 0000 0040                                  ; f32 literal
000002c: 0d                                         ; OPCODE_F32_CONST
000002d: 0000 4040                                  ; f32 literal
0000031: 09                                         ; OPCODE_I8_CONST
0000032: 01                                         ; u8 literal
0000033: 05                                         ; OPCODE_SELECT
0000034: 0c                                         ; OPCODE_F64_CONST
0000035: 0000 0000 0000 0040                        ; f64 literal
000003d: 0c                                         ; OPCODE_F64_CONST
000003e: 0000 0000 0000 0840                        ; f64 literal
0000046: 09                                         ; OPCODE_I8_CONST
0000047: 01                                         ; u8 literal
0000048: 05                                         ; OPCODE_SELECT
0000009: 3e00                                       ; FIXUP func body size
0000049: 06                                         ; WASM_SECTION_END
;; dump
0000000: 0101 0000 0201 0000 003e 0009 0209 0309  
0000010: 0105 0b02 0000 0000 0000 000b 0300 0000  
0000020: 0000 0000 0901 050d 0000 0040 0d00 0040  
0000030: 4009 0105 0c00 0000 0000 0000 400c 0000  
0000040: 0000 0000 0840 0901 0506                 
;;; STDOUT ;;)
