;;; FLAGS: -dv
(module
  (func
    ;; i32               0   1
    ;; i64           2                   3
    ;; f32       4               5
    ;; f64   6                       7
    (local f64 f32 i64 i32 i32 f32 f64 i64)
    (set_local 0 (f64.const 0))
    (set_local 1 (f32.const 0))
    (set_local 2 (i64.const 0))
    (set_local 3 (i32.const 0))
    (set_local 4 (i32.const 0))
    (set_local 5 (f32.const 0))
    (set_local 6 (f64.const 0))
    (set_local 7 (i64.const 0))))
(;; STDOUT ;;;
0000000: 01                                         ; WASM_SECTION_SIGNATURES
0000001: 01                                         ; num signatures
; signature 0
0000002: 00                                         ; num params
0000003: 00                                         ; result_type
0000004: 02                                         ; WASM_SECTION_FUNCTIONS
0000005: 01                                         ; num functions
; function 0
0000006: 04                                         ; func flags
0000007: 0000                                       ; func signature index
0000009: 0200                                       ; num local i32
000000b: 0200                                       ; num local i64
000000d: 0200                                       ; num local f32
000000f: 0200                                       ; num local f64
0000011: 0000                                       ; func body size
0000013: 0c                                         ; OPCODE_F64_CONST
0000014: 0000 0000 0000 0000                        ; f64 literal
000001c: 0f                                         ; OPCODE_SET_LOCAL
000001d: 06                                         ; remapped local index
000001e: 0d                                         ; OPCODE_F32_CONST
000001f: 0000 0000                                  ; f32 literal
0000023: 0f                                         ; OPCODE_SET_LOCAL
0000024: 04                                         ; remapped local index
0000025: 0b                                         ; OPCODE_I64_CONST
0000026: 0000 0000 0000 0000                        ; u64 literal
000002e: 0f                                         ; OPCODE_SET_LOCAL
000002f: 02                                         ; remapped local index
0000030: 09                                         ; OPCODE_I8_CONST
0000031: 00                                         ; u8 literal
0000032: 0f                                         ; OPCODE_SET_LOCAL
0000033: 00                                         ; remapped local index
0000034: 09                                         ; OPCODE_I8_CONST
0000035: 00                                         ; u8 literal
0000036: 0f                                         ; OPCODE_SET_LOCAL
0000037: 01                                         ; remapped local index
0000038: 0d                                         ; OPCODE_F32_CONST
0000039: 0000 0000                                  ; f32 literal
000003d: 0f                                         ; OPCODE_SET_LOCAL
000003e: 05                                         ; remapped local index
000003f: 0c                                         ; OPCODE_F64_CONST
0000040: 0000 0000 0000 0000                        ; f64 literal
0000048: 0f                                         ; OPCODE_SET_LOCAL
0000049: 07                                         ; remapped local index
000004a: 0b                                         ; OPCODE_I64_CONST
000004b: 0000 0000 0000 0000                        ; u64 literal
0000053: 0f                                         ; OPCODE_SET_LOCAL
0000054: 03                                         ; remapped local index
0000011: 4200                                       ; FIXUP func body size
0000055: 06                                         ; WASM_SECTION_END
;; dump
0000000: 0101 0000 0201 0400 0002 0002 0002 0002  
0000010: 0042 000c 0000 0000 0000 0000 0f06 0d00  
0000020: 0000 000f 040b 0000 0000 0000 0000 0f02  
0000030: 0900 0f00 0900 0f01 0d00 0000 000f 050c  
0000040: 0000 0000 0000 0000 0f07 0b00 0000 0000  
0000050: 0000 000f 0306                           
;;; STDOUT ;;)
