;;; FLAGS: -dv
(module
  (func
    (i32.store8 (i32.const 0) (i32.const 0))
    (i32.store16 (i32.const 0) (i32.const 0))
    (i32.store (i32.const 0) (i32.const 0))
    (i64.store (i32.const 0) (i64.const 0))
    (i64.store8 (i32.const 0) (i64.const 0))
    (i64.store16 (i32.const 0) (i64.const 0))
    (i64.store32 (i32.const 0) (i64.const 0))
    (f32.store (i32.const 0) (f32.const 0))
    (f64.store (i32.const 0) (f64.const 0))))
(;; STDOUT ;;;
0000000: 01                                         ; WASM_SECTION_SIGNATURES
0000001: 01                                         ; num signatures
; signature 0
0000002: 00                                         ; num params
0000003: 00                                         ; result_type
0000004: 02                                         ; WASM_SECTION_FUNCTIONS
0000005: 01                                         ; num functions
; function 0
0000006: 00                                         ; func flags
0000007: 0000                                       ; func signature index
0000009: 0000                                       ; func body size
000000b: 09                                         ; OPCODE_I8_CONST
000000c: 00                                         ; u8 literal
000000d: 09                                         ; OPCODE_I8_CONST
000000e: 00                                         ; u8 literal
000000f: 2e                                         ; OPCODE_I32_STORE_MEM8
0000010: 00                                         ; store access byte
0000011: 09                                         ; OPCODE_I8_CONST
0000012: 00                                         ; u8 literal
0000013: 09                                         ; OPCODE_I8_CONST
0000014: 00                                         ; u8 literal
0000015: 2f                                         ; OPCODE_I32_STORE_MEM16
0000016: 00                                         ; store access byte
0000017: 09                                         ; OPCODE_I8_CONST
0000018: 00                                         ; u8 literal
0000019: 09                                         ; OPCODE_I8_CONST
000001a: 00                                         ; u8 literal
000001b: 33                                         ; OPCODE_I32_STORE_MEM
000001c: 00                                         ; store access byte
000001d: 09                                         ; OPCODE_I8_CONST
000001e: 00                                         ; u8 literal
000001f: 0b                                         ; OPCODE_I64_CONST
0000020: 0000 0000 0000 0000                        ; u64 literal
0000028: 34                                         ; OPCODE_I64_STORE_MEM
0000029: 00                                         ; store access byte
000002a: 09                                         ; OPCODE_I8_CONST
000002b: 00                                         ; u8 literal
000002c: 0b                                         ; OPCODE_I64_CONST
000002d: 0000 0000 0000 0000                        ; u64 literal
0000035: 30                                         ; OPCODE_I64_STORE_MEM8
0000036: 00                                         ; store access byte
0000037: 09                                         ; OPCODE_I8_CONST
0000038: 00                                         ; u8 literal
0000039: 0b                                         ; OPCODE_I64_CONST
000003a: 0000 0000 0000 0000                        ; u64 literal
0000042: 31                                         ; OPCODE_I64_STORE_MEM16
0000043: 00                                         ; store access byte
0000044: 09                                         ; OPCODE_I8_CONST
0000045: 00                                         ; u8 literal
0000046: 0b                                         ; OPCODE_I64_CONST
0000047: 0000 0000 0000 0000                        ; u64 literal
000004f: 32                                         ; OPCODE_I64_STORE_MEM32
0000050: 00                                         ; store access byte
0000051: 09                                         ; OPCODE_I8_CONST
0000052: 00                                         ; u8 literal
0000053: 0d                                         ; OPCODE_F32_CONST
0000054: 0000 0000                                  ; f32 literal
0000058: 35                                         ; OPCODE_F32_STORE_MEM
0000059: 00                                         ; store access byte
000005a: 09                                         ; OPCODE_I8_CONST
000005b: 00                                         ; u8 literal
000005c: 0c                                         ; OPCODE_F64_CONST
000005d: 0000 0000 0000 0000                        ; f64 literal
0000065: 36                                         ; OPCODE_F64_STORE_MEM
0000066: 00                                         ; store access byte
0000009: 5c00                                       ; FIXUP func body size
0000067: 06                                         ; WASM_SECTION_END
;; dump
0000000: 0101 0000 0201 0000 005c 0009 0009 002e  
0000010: 0009 0009 002f 0009 0009 0033 0009 000b  
0000020: 0000 0000 0000 0000 3400 0900 0b00 0000  
0000030: 0000 0000 0030 0009 000b 0000 0000 0000  
0000040: 0000 3100 0900 0b00 0000 0000 0000 0032  
0000050: 0009 000d 0000 0000 3500 0900 0c00 0000  
0000060: 0000 0000 0036 0006                      
;;; STDOUT ;;)
