;;; FLAGS: -dv
(module
  (func
    (tableswitch (i32.const 0)
      (table (case 0) (case 1)) (br 0)
      (case (i32.const 1) (i32.const 2))  ;; expression list
      (case)  ;; fallthrough
      (case (i32.const 3)))))
(;; STDOUT ;;;
0000000: 01                                         ; WASM_SECTION_SIGNATURES
0000001: 01                                         ; num signatures
; signature 0
0000002: 00                                         ; num params
0000003: 00                                         ; result_type
0000004: 02                                         ; WASM_SECTION_FUNCTIONS
0000005: 01                                         ; num functions
; function 0
0000006: 00                                         ; func flags
0000007: 0000                                       ; func signature index
0000009: 0000                                       ; func body size
000000b: 09                                         ; OPCODE_I8_CONST
000000c: 00                                         ; u8 literal
000000d: 08                                         ; OPCODE_TABLESWITCH
000000e: 0300                                       ; num cases
0000010: 0300                                       ; num targets
0000012: 0000                                       ; case index
0000014: 0100                                       ; case index
0000016: 0080                                       ; br depth
0000018: 09                                         ; OPCODE_I8_CONST
0000019: 01                                         ; u8 literal
000001a: 09                                         ; OPCODE_I8_CONST
000001b: 02                                         ; u8 literal
000001c: 16                                         ; OPCODE_NEXT
000001d: 16                                         ; OPCODE_NEXT
000001e: 09                                         ; OPCODE_I8_CONST
000001f: 03                                         ; u8 literal
0000020: 17                                         ; OPCODE_END
0000009: 1600                                       ; FIXUP func body size
0000021: 06                                         ; WASM_SECTION_END
;; dump
0000000: 0101 0000 0201 0000 0016 0009 0008 0300  
0000010: 0300 0000 0100 0080 0901 0902 1616 0903  
0000020: 1706                                     
;;; STDOUT ;;)
