;;; FLAGS: -dv
(module
  (func
    (tableswitch $ts (i32.const 0)
      (table (case $0)) (case $default)
      (case $0 (nop) (br $ts))       ;; depth 1
      (case $default (nop) (br 0)))  ;; depth 1 (due to implicit block)
))
(;; STDOUT ;;;
0000000: 01                                         ; WASM_SECTION_SIGNATURES
0000001: 01                                         ; num signatures
; signature 0
0000002: 00                                         ; num params
0000003: 00                                         ; result_type
0000004: 02                                         ; WASM_SECTION_FUNCTIONS
0000005: 01                                         ; num functions
; function 0
0000006: 00                                         ; func flags
0000007: 0000                                       ; func signature index
0000009: 0000                                       ; func body size
000000b: 09                                         ; OPCODE_I8_CONST
000000c: 00                                         ; u8 literal
000000d: 08                                         ; OPCODE_TABLESWITCH
000000e: 0200                                       ; num cases
0000010: 0200                                       ; num targets
0000012: 0000                                       ; case index
0000014: 0100                                       ; case index
0000016: 00                                         ; OPCODE_NOP
0000017: 00                                         ; OPCODE_NOP
0000018: 06                                         ; OPCODE_BR
0000019: 00                                         ; break depth
000001a: 16                                         ; OPCODE_NEXT
000001b: 00                                         ; OPCODE_NOP
000001c: 00                                         ; OPCODE_NOP
000001d: 06                                         ; OPCODE_BR
000001e: 00                                         ; break depth
000001f: 17                                         ; OPCODE_END
0000009: 1500                                       ; FIXUP func body size
0000020: 06                                         ; WASM_SECTION_END
;; dump
0000000: 0101 0000 0201 0000 0015 0009 0008 0200  
0000010: 0200 0000 0100 0000 0600 1600 0006 0017  
0000020: 06                                       
;;; STDOUT ;;)
