;;; FLAGS: -dv
(module
  (func
    (i32.not
      (i32.clz
        (i32.ctz
          (i32.popcnt (i32.const 0)))))

    (i64.clz
      (i64.ctz
        (i64.popcnt (i64.const 0))))

    (f32.neg
      (f32.abs
        (f32.sqrt
          (f32.ceil
            (f32.floor
              (f32.trunc
                (f32.nearest (f32.const 0))))))))

    (f64.neg
      (f64.abs
        (f64.sqrt
          (f64.ceil
            (f64.floor
              (f64.trunc
                (f64.nearest (f64.const 0))))))))))
(;; STDOUT ;;;
0000000: 01                                         ; WASM_SECTION_SIGNATURES
0000001: 01                                         ; num signatures
; signature 0
0000002: 00                                         ; num params
0000003: 00                                         ; result_type
0000004: 02                                         ; WASM_SECTION_FUNCTIONS
0000005: 01                                         ; num functions
; function 0
0000006: 00                                         ; func flags
0000007: 0000                                       ; func signature index
0000009: 0000                                       ; func body size
000000b: 09                                         ; OPCODE_I8_CONST
000000c: 00                                         ; u8 literal
000000d: 59                                         ; OPCODE_I32_POPCNT
000000e: 58                                         ; OPCODE_I32_CTZ
000000f: 57                                         ; OPCODE_I32_CLZ
0000010: 5a                                         ; OPCODE_BOOL_NOT
0000011: 0b                                         ; OPCODE_I64_CONST
0000012: 0000 0000 0000 0000                        ; u64 literal
000001a: 74                                         ; OPCODE_I64_POPCNT
000001b: 73                                         ; OPCODE_I64_CTZ
000001c: 72                                         ; OPCODE_I64_CLZ
000001d: 0d                                         ; OPCODE_F32_CONST
000001e: 0000 0000                                  ; f32 literal
0000022: 81                                         ; OPCODE_F32_NEAREST_INT
0000023: 80                                         ; OPCODE_F32_TRUNC
0000024: 7f                                         ; OPCODE_F32_FLOOR
0000025: 7e                                         ; OPCODE_F32_CEIL
0000026: 82                                         ; OPCODE_F32_SQRT
0000027: 7b                                         ; OPCODE_F32_ABS
0000028: 7c                                         ; OPCODE_F32_NEG
0000029: 0c                                         ; OPCODE_F64_CONST
000002a: 0000 0000 0000 0000                        ; f64 literal
0000032: 95                                         ; OPCODE_F64_NEAREST_INT
0000033: 94                                         ; OPCODE_F64_TRUNC
0000034: 93                                         ; OPCODE_F64_FLOOR
0000035: 92                                         ; OPCODE_F64_CEIL
0000036: 96                                         ; OPCODE_F64_SQRT
0000037: 8f                                         ; OPCODE_F64_ABS
0000038: 90                                         ; OPCODE_F64_NEG
0000009: 2e00                                       ; FIXUP func body size
0000039: 06                                         ; WASM_SECTION_END
;; dump
0000000: 0101 0000 0201 0000 002e 0009 0059 5857  
0000010: 5a0b 0000 0000 0000 0000 7473 720d 0000  
0000020: 0000 8180 7f7e 827b 7c0c 0000 0000 0000  
0000030: 0000 9594 9392 968f 9006                 
;;; STDOUT ;;)
